target datalayout = "e-m:e-p270:32:32-p271:32:32-p272:64:64-i64:64-i128:128-f80:128-n8:16:32:64-S128"
target triple = "x86_64-pc-linux-gnu"

@hf_r3_testkeypad = internal global i32 0, align 4
@.str.1860 = private unnamed_addr constant [29 x i8] c"%s:%u: failed assertion \22%s\22\00", align 1
@.str.1861 = private unnamed_addr constant [33 x i8] c"epan/dissectors/packet-assa_r3.c\00", align 1
@.str.1862 = private unnamed_addr constant [18 x i8] c"start_offset == 0\00", align 1

; Function Attrs: null_pointer_is_valid sspstrong uwtable
define internal void @dissect_r3_upstreammfgfield_keypadchar(ptr noundef %0, i32 noundef %1, i32 noundef %2, ptr noundef %3, ptr noundef %4) #0 {
  %6 = alloca ptr, align 8
  %7 = alloca i32, align 4
  %8 = alloca i32, align 4
  %9 = alloca ptr, align 8
  %10 = alloca ptr, align 8
  store ptr %0, ptr %6, align 8
  store i32 %1, ptr %7, align 4
  store i32 %2, ptr %8, align 4
  store ptr %3, ptr %9, align 8
  store ptr %4, ptr %10, align 8
  %11 = load ptr, ptr %10, align 8
  %12 = icmp ne ptr %11, null
  br i1 %12, label %14, label %13

13:                                               ; preds = %5
  br label %25

14:                                               ; preds = %5
  %15 = load i32, ptr %7, align 4
  %16 = icmp eq i32 %15, 0
  br i1 %16, label %17, label %18

17:                                               ; preds = %14
  br label %20

18:                                               ; preds = %14
  call void (ptr, ...) @proto_report_dissector_bug(ptr noundef @.str.1860, ptr noundef @.str.1861, i32 noundef 4991, ptr noundef @.str.1862) #6
  unreachable

19:                                               ; No predecessors!
  br label %20

20:                                               ; preds = %19, %17
  %21 = load ptr, ptr %10, align 8
  %22 = load i32, ptr @hf_r3_testkeypad, align 4
  %23 = load ptr, ptr %6, align 8
  %24 = call ptr @proto_tree_add_item(ptr noundef %21, i32 noundef %22, ptr noundef %23, i32 noundef 0, i32 noundef 1, i32 noundef -2147483648)
  br label %25

25:                                               ; preds = %20, %13
  ret void
}